target datalayout = "e-m:e-p270:32:32-p271:32:32-p272:64:64-i64:64-i128:128-f80:128-n8:16:32:64-S128"
target triple = "x86_64-pc-linux-gnu"

%struct.printTableFooter = type { ptr, ptr }
%struct.printTableContent = type { ptr, ptr, i32, i32, ptr, ptr, ptr, ptr, i64, ptr, ptr, ptr, ptr, ptr }

; Function Attrs: nounwind uwtable
define dso_local void @printTableCleanup(ptr noundef %0) #0 {
  %2 = alloca ptr, align 8
  %3 = alloca i64, align 8
  %4 = alloca i64, align 8
  %5 = alloca i32, align 4
  %6 = alloca ptr, align 8
  store ptr %0, ptr %2, align 8
  %7 = load ptr, ptr %2, align 8
  %8 = getelementptr inbounds nuw %struct.printTableContent, ptr %7, i32 0, i32 9
  %9 = load ptr, ptr %8, align 8
  %10 = icmp ne ptr %9, null
  br i1 %10, label %11, label %54

11:                                               ; preds = %1
  call void @llvm.lifetime.start.p0(i64 8, ptr %3) #8
  %12 = load ptr, ptr %2, align 8
  %13 = getelementptr inbounds nuw %struct.printTableContent, ptr %12, i32 0, i32 2
  %14 = load i32, ptr %13, align 8
  %15 = sext i32 %14 to i64
  %16 = load ptr, ptr %2, align 8
  %17 = getelementptr inbounds nuw %struct.printTableContent, ptr %16, i32 0, i32 3
  %18 = load i32, ptr %17, align 4
  %19 = sext i32 %18 to i64
  %20 = mul i64 %15, %19
  store i64 %20, ptr %3, align 8
  call void @llvm.lifetime.start.p0(i64 8, ptr %4) #8
  store i64 0, ptr %4, align 8
  br label %21

21:                                               ; preds = %45, %11
  %22 = load i64, ptr %4, align 8
  %23 = load i64, ptr %3, align 8
  %24 = icmp ult i64 %22, %23
  br i1 %24, label %26, label %25

25:                                               ; preds = %21
  call void @llvm.lifetime.end.p0(i64 8, ptr %4) #8
  br label %48

26:                                               ; preds = %21
  %27 = load ptr, ptr %2, align 8
  %28 = getelementptr inbounds nuw %struct.printTableContent, ptr %27, i32 0, i32 9
  %29 = load ptr, ptr %28, align 8
  %30 = load i64, ptr %4, align 8
  %31 = getelementptr inbounds nuw i8, ptr %29, i64 %30
  %32 = load i8, ptr %31, align 1, !range !4, !noundef !5
  %33 = trunc i8 %32 to i1
  br i1 %33, label %34, label %44

34:                                               ; preds = %26
  br label %35

35:                                               ; preds = %34
  br label %36

36:                                               ; preds = %35
  br label %37

37:                                               ; preds = %36
  store i32 1, ptr %5, align 4
  %38 = load ptr, ptr %2, align 8
  %39 = getelementptr inbounds nuw %struct.printTableContent, ptr %38, i32 0, i32 6
  %40 = load ptr, ptr %39, align 8
  %41 = load i64, ptr %4, align 8
  %42 = getelementptr inbounds nuw ptr, ptr %40, i64 %41
  %43 = load ptr, ptr %42, align 8
  call void @free(ptr noundef %43) #8
  br label %44

44:                                               ; preds = %37, %26
  br label %45

45:                                               ; preds = %44
  %46 = load i64, ptr %4, align 8
  %47 = add i64 %46, 1
  store i64 %47, ptr %4, align 8
  br label %21, !llvm.loop !8

48:                                               ; preds = %25
  %49 = load ptr, ptr %2, align 8
  %50 = getelementptr inbounds nuw %struct.printTableContent, ptr %49, i32 0, i32 9
  %51 = load ptr, ptr %50, align 8
  call void @free(ptr noundef %51) #8
  %52 = load ptr, ptr %2, align 8
  %53 = getelementptr inbounds nuw %struct.printTableContent, ptr %52, i32 0, i32 9
  store ptr null, ptr %53, align 8
  call void @llvm.lifetime.end.p0(i64 8, ptr %3) #8
  br label %54

54:                                               ; preds = %48, %1
  %55 = load ptr, ptr %2, align 8
  %56 = getelementptr inbounds nuw %struct.printTableContent, ptr %55, i32 0, i32 4
  %57 = load ptr, ptr %56, align 8
  call void @free(ptr noundef %57) #8
  %58 = load ptr, ptr %2, align 8
  %59 = getelementptr inbounds nuw %struct.printTableContent, ptr %58, i32 0, i32 6
  %60 = load ptr, ptr %59, align 8
  call void @free(ptr noundef %60) #8
  %61 = load ptr, ptr %2, align 8
  %62 = getelementptr inbounds nuw %struct.printTableContent, ptr %61, i32 0, i32 12
  %63 = load ptr, ptr %62, align 8
  call void @free(ptr noundef %63) #8
  %64 = load ptr, ptr %2, align 8
  %65 = getelementptr inbounds nuw %struct.printTableContent, ptr %64, i32 0, i32 0
  store ptr null, ptr %65, align 8
  %66 = load ptr, ptr %2, align 8
  %67 = getelementptr inbounds nuw %struct.printTableContent, ptr %66, i32 0, i32 1
  store ptr null, ptr %67, align 8
  %68 = load ptr, ptr %2, align 8
  %69 = getelementptr inbounds nuw %struct.printTableContent, ptr %68, i32 0, i32 4
  store ptr null, ptr %69, align 8
  %70 = load ptr, ptr %2, align 8
  %71 = getelementptr inbounds nuw %struct.printTableContent, ptr %70, i32 0, i32 6
  store ptr null, ptr %71, align 8
  %72 = load ptr, ptr %2, align 8
  %73 = getelementptr inbounds nuw %struct.printTableContent, ptr %72, i32 0, i32 12
  store ptr null, ptr %73, align 8
  %74 = load ptr, ptr %2, align 8
  %75 = getelementptr inbounds nuw %struct.printTableContent, ptr %74, i32 0, i32 5
  store ptr null, ptr %75, align 8
  %76 = load ptr, ptr %2, align 8
  %77 = getelementptr inbounds nuw %struct.printTableContent, ptr %76, i32 0, i32 7
  store ptr null, ptr %77, align 8
  %78 = load ptr, ptr %2, align 8
  %79 = getelementptr inbounds nuw %struct.printTableContent, ptr %78, i32 0, i32 13
  store ptr null, ptr %79, align 8
  %80 = load ptr, ptr %2, align 8
  %81 = getelementptr inbounds nuw %struct.printTableContent, ptr %80, i32 0, i32 10
  %82 = load ptr, ptr %81, align 8
  %83 = icmp ne ptr %82, null
  br i1 %83, label %84, label %109

84:                                               ; preds = %54
  %85 = load ptr, ptr %2, align 8
  %86 = getelementptr inbounds nuw %struct.printTableContent, ptr %85, i32 0, i32 10
  %87 = load ptr, ptr %86, align 8
  %88 = load ptr, ptr %2, align 8
  %89 = getelementptr inbounds nuw %struct.printTableContent, ptr %88, i32 0, i32 11
  store ptr %87, ptr %89, align 8
  br label %90

90:                                               ; preds = %95, %84
  %91 = load ptr, ptr %2, align 8
  %92 = getelementptr inbounds nuw %struct.printTableContent, ptr %91, i32 0, i32 11
  %93 = load ptr, ptr %92, align 8
  %94 = icmp ne ptr %93, null
  br i1 %94, label %95, label %108

95:                                               ; preds = %90
  call void @llvm.lifetime.start.p0(i64 8, ptr %6) #8
  %96 = load ptr, ptr %2, align 8
  %97 = getelementptr inbounds nuw %struct.printTableContent, ptr %96, i32 0, i32 11
  %98 = load ptr, ptr %97, align 8
  store ptr %98, ptr %6, align 8
  %99 = load ptr, ptr %6, align 8
  %100 = getelementptr inbounds nuw %struct.printTableFooter, ptr %99, i32 0, i32 1
  %101 = load ptr, ptr %100, align 8
  %102 = load ptr, ptr %2, align 8
  %103 = getelementptr inbounds nuw %struct.printTableContent, ptr %102, i32 0, i32 11
  store ptr %101, ptr %103, align 8
  %104 = load ptr, ptr %6, align 8
  %105 = getelementptr inbounds nuw %struct.printTableFooter, ptr %104, i32 0, i32 0
  %106 = load ptr, ptr %105, align 8
  call void @free(ptr noundef %106) #8
  %107 = load ptr, ptr %6, align 8
  call void @free(ptr noundef %107) #8
  call void @llvm.lifetime.end.p0(i64 8, ptr %6) #8
  br label %90, !llvm.loop !9

108:                                              ; preds = %90
  br label %109

109:                                              ; preds = %108, %54
  %110 = load ptr, ptr %2, align 8
  %111 = getelementptr inbounds nuw %struct.printTableContent, ptr %110, i32 0, i32 10
  store ptr null, ptr %111, align 8
  %112 = load ptr, ptr %2, align 8
  %113 = getelementptr inbounds nuw %struct.printTableContent, ptr %112, i32 0, i32 11
  store ptr null, ptr %113, align 8
  ret void
}