; Function Attrs: nounwind uwtable
define dso_local void @printTableCleanup(ptr noundef captures(none) %0) local_unnamed_addr #3 {
  %2 = getelementptr inbounds nuw i8, ptr %0, i64 64
  %3 = load ptr, ptr %2, align 8
  %.not = icmp eq ptr %3, null
  br i1 %.not, label %25, label %4

4:                                                ; preds = %1
  %5 = getelementptr inbounds nuw i8, ptr %0, i64 16
  %6 = load i32, ptr %5, align 8
  %7 = sext i32 %6 to i64
  %8 = getelementptr inbounds nuw i8, ptr %0, i64 20
  %9 = load i32, ptr %8, align 4
  %10 = sext i32 %9 to i64
  %11 = mul nsw i64 %10, %7
  %.not38 = icmp eq i64 %11, 0
  br i1 %.not38, label %._crit_edge, label %.lr.ph

.lr.ph:                                           ; preds = %4
  %12 = getelementptr inbounds nuw i8, ptr %0, i64 40
  br label %14

._crit_edge.loopexit:                             ; preds = %23
  %.pre = load ptr, ptr %2, align 8
  br label %._crit_edge

._crit_edge:                                      ; preds = %._crit_edge.loopexit, %4
  %13 = phi ptr [ %.pre, %._crit_edge.loopexit ], [ %3, %4 ]
  tail call void @free(ptr noundef %13) #19
  store ptr null, ptr %2, align 8
  br label %25

14:                                               ; preds = %.lr.ph, %23
  %.037 = phi i64 [ 0, %.lr.ph ], [ %24, %23 ]
  %15 = load ptr, ptr %2, align 8
  %16 = getelementptr inbounds nuw i8, ptr %15, i64 %.037
  %17 = load i8, ptr %16, align 1, !range !6, !noundef !7
  %18 = trunc nuw i8 %17 to i1
  br i1 %18, label %19, label %23

19:                                               ; preds = %14
  %20 = load ptr, ptr %12, align 8
  %21 = getelementptr inbounds nuw ptr, ptr %20, i64 %.037
  %22 = load ptr, ptr %21, align 8
  tail call void @free(ptr noundef %22) #19
  br label %23

23:                                               ; preds = %14, %19
  %24 = add nuw i64 %.037, 1
  %exitcond.not = icmp eq i64 %24, %11
  br i1 %exitcond.not, label %._crit_edge.loopexit, label %14, !llvm.loop !8

25:                                               ; preds = %._crit_edge, %1
  %26 = getelementptr inbounds nuw i8, ptr %0, i64 24
  %27 = load ptr, ptr %26, align 8
  tail call void @free(ptr noundef %27) #19
  %28 = getelementptr inbounds nuw i8, ptr %0, i64 40
  %29 = load ptr, ptr %28, align 8
  tail call void @free(ptr noundef %29) #19
  %30 = getelementptr inbounds nuw i8, ptr %0, i64 88
  %31 = load ptr, ptr %30, align 8
  tail call void @free(ptr noundef %31) #19
  %32 = getelementptr inbounds nuw i8, ptr %0, i64 72
  tail call void @llvm.memset.p0.i64(ptr noundef nonnull align 8 dereferenceable(16) %0, i8 0, i64 16, i1 false)
  tail call void @llvm.memset.p0.i64(ptr noundef nonnull align 8 dereferenceable(32) %26, i8 0, i64 32, i1 false)
  tail call void @llvm.memset.p0.i64(ptr noundef nonnull align 8 dereferenceable(16) %30, i8 0, i64 16, i1 false)
  %33 = load ptr, ptr %32, align 8
  %.not35 = icmp eq ptr %33, null
  br i1 %.not35, label %.loopexit, label %34

34:                                               ; preds = %25
  %35 = getelementptr inbounds nuw i8, ptr %0, i64 80
  store ptr %33, ptr %35, align 8
  br label %36

36:                                               ; preds = %34, %36
  %37 = phi ptr [ %33, %34 ], [ %.pr, %36 ]
  %38 = getelementptr inbounds nuw i8, ptr %37, i64 8
  %39 = load ptr, ptr %38, align 8
  store ptr %39, ptr %35, align 8
  %40 = load ptr, ptr %37, align 8
  tail call void @free(ptr noundef %40) #19
  tail call void @free(ptr noundef nonnull %37) #19
  %.pr = load ptr, ptr %35, align 8
  %.not36 = icmp eq ptr %.pr, null
  br i1 %.not36, label %.loopexit, label %36, !llvm.loop !9

.loopexit:                                        ; preds = %36, %25
  tail call void @llvm.memset.p0.i64(ptr noundef nonnull align 8 dereferenceable(16) %32, i8 0, i64 16, i1 false)
  ret void
}